; Function Attrs: nounwind uwtable
define dso_local range(i32 -32768, 32768) i32 @get_op_opfamily_strategy(i32 noundef %0, i32 noundef %1) local_unnamed_addr #0 {
  %3 = zext i32 %0 to i64
  %4 = zext i32 %1 to i64
  %5 = tail call ptr @SearchSysCache3(i32 noundef 3, i64 noundef %3, i64 noundef 115, i64 noundef %4) #8
  %.not = icmp eq ptr %5, null
  br i1 %.not, label %15, label %6

6:                                                ; preds = %2
  %7 = getelementptr i8, ptr %5, i64 16
  %.val = load ptr, ptr %7, align 8
  %8 = getelementptr inbounds nuw i8, ptr %.val, i64 22
  %9 = load i8, ptr %8, align 2
  %10 = zext i8 %9 to i64
  %11 = getelementptr inbounds nuw i8, ptr %.val, i64 %10
  %12 = getelementptr inbounds nuw i8, ptr %11, i64 16
  %13 = load i16, ptr %12, align 4
  %14 = sext i16 %13 to i32
  tail call void @ReleaseSysCache(ptr noundef nonnull %5) #8
  br label %15

15:                                               ; preds = %2, %6
  %.0 = phi i32 [ %14, %6 ], [ 0, %2 ]
  ret i32 %.0
}